; ModuleID = '3/3008.c'
source_filename = "3/3008.c"
target datalayout = "e-m:e-p270:32:32-p271:32:32-p272:64:64-i64:64-f80:128-n8:16:32:64-S128"
target triple = "x86_64-pc-linux-gnu"

@.str = private unnamed_addr constant [5 x i8] c"%d%d\00", align 1
@.str.1 = private unnamed_addr constant [3 x i8] c"%d\00", align 1
@.str.2 = private unnamed_addr constant [4 x i8] c"yes\00", align 1
@.str.3 = private unnamed_addr constant [3 x i8] c"no\00", align 1

; Function Attrs: noinline nounwind uwtable
define dso_local i32 @main() #0 {
  %1 = alloca i32, align 4
  %2 = alloca i32, align 4
  %3 = alloca i32, align 4
  %4 = alloca [1000 x i32], align 16
  %5 = alloca i32, align 4
  %6 = alloca i32, align 4
  store i32 0, i32* %1, align 4
  %7 = call i32 (i8*, ...) @__isoc99_scanf(i8* getelementptr inbounds ([5 x i8], [5 x i8]* @.str, i64 0, i64 0), i32* %2, i32* %3)
  store i32 0, i32* %5, align 4
  br label %8

8:                                                ; preds = %17, %0
  %9 = load i32, i32* %5, align 4
  %10 = load i32, i32* %2, align 4
  %11 = icmp slt i32 %9, %10
  br i1 %11, label %12, label %20

12:                                               ; preds = %8
  %13 = load i32, i32* %5, align 4
  %14 = sext i32 %13 to i64
  %15 = getelementptr inbounds [1000 x i32], [1000 x i32]* %4, i64 0, i64 %14
  %16 = call i32 (i8*, ...) @__isoc99_scanf(i8* getelementptr inbounds ([3 x i8], [3 x i8]* @.str.1, i64 0, i64 0), i32* %15)
  br label %17

17:                                               ; preds = %12
  %18 = load i32, i32* %5, align 4
  %19 = add nsw i32 %18, 1
  store i32 %19, i32* %5, align 4
  br label %8

20:                                               ; preds = %8
  store i32 0, i32* %5, align 4
  br label %21

21:                                               ; preds = %72, %20
  %22 = load i32, i32* %5, align 4
  %23 = load i32, i32* %2, align 4
  %24 = sub nsw i32 %23, 1
  %25 = icmp slt i32 %22, %24
  br i1 %25, label %26, label %75

26:                                               ; preds = %21
  %27 = load i32, i32* %5, align 4
  %28 = add nsw i32 %27, 1
  store i32 %28, i32* %6, align 4
  br label %29

29:                                               ; preds = %48, %26
  %30 = load i32, i32* %6, align 4
  %31 = load i32, i32* %2, align 4
  %32 = icmp slt i32 %30, %31
  br i1 %32, label %33, label %51

33:                                               ; preds = %29
  %34 = load i32, i32* %5, align 4
  %35 = sext i32 %34 to i64
  %36 = getelementptr inbounds [1000 x i32], [1000 x i32]* %4, i64 0, i64 %35
  %37 = load i32, i32* %36, align 4
  %38 = load i32, i32* %6, align 4
  %39 = sext i32 %38 to i64
  %40 = getelementptr inbounds [1000 x i32], [1000 x i32]* %4, i64 0, i64 %39
  %41 = load i32, i32* %40, align 4
  %42 = add nsw i32 %37, %41
  %43 = load i32, i32* %3, align 4
  %44 = icmp eq i32 %42, %43
  br i1 %44, label %45, label %47

45:                                               ; preds = %33
  %46 = call i32 (i8*, ...) @printf(i8* getelementptr inbounds ([4 x i8], [4 x i8]* @.str.2, i64 0, i64 0))
  br label %51

47:                                               ; preds = %33
  br label %48

48:                                               ; preds = %47
  %49 = load i32, i32* %6, align 4
  %50 = add nsw i32 %49, 1
  store i32 %50, i32* %6, align 4
  br label %29

51:                                               ; preds = %45, %29
  %52 = load i32, i32* %5, align 4
  %53 = sext i32 %52 to i64
  %54 = getelementptr inbounds [1000 x i32], [1000 x i32]* %4, i64 0, i64 %53
  %55 = load i32, i32* %54, align 4
  %56 = load i32, i32* %6, align 4
  %57 = sext i32 %56 to i64
  %58 = getelementptr inbounds [1000 x i32], [1000 x i32]* %4, i64 0, i64 %57
  %59 = load i32, i32* %58, align 4
  %60 = add nsw i32 %55, %59
  %61 = load i32, i32* %3, align 4
  %62 = icmp eq i32 %60, %61
  br i1 %62, label %63, label %64

63:                                               ; preds = %51
  br label %75

64:                                               ; preds = %51
  %65 = load i32, i32* %5, align 4
  %66 = load i32, i32* %2, align 4
  %67 = sub nsw i32 %66, 2
  %68 = icmp eq i32 %65, %67
  br i1 %68, label %69, label %71

69:                                               ; preds = %64
  %70 = call i32 (i8*, ...) @printf(i8* getelementptr inbounds ([3 x i8], [3 x i8]* @.str.3, i64 0, i64 0))
  br label %71

71:                                               ; preds = %69, %64
  br label %72

72:                                               ; preds = %71
  %73 = load i32, i32* %5, align 4
  %74 = add nsw i32 %73, 1
  store i32 %74, i32* %5, align 4
  br label %21

75:                                               ; preds = %63, %21
  ret i32 0
}

declare dso_local i32 @__isoc99_scanf(i8*, ...) #1

declare dso_local i32 @printf(i8*, ...) #1


!llvm.module.flags = !{!0}
!llvm.ident = !{!1}

!0 = !{i32 1, !"wchar_size", i32 4}
!1 = !{!"clang version 10.0.0-4ubuntu1 "}
